(dp0
S'termCrit'
p1
S'0'
p2
sS'nTrees'
p3
S'100'
p4
sS'nActVars'
p5
S'13'
p6
sS'priors'
p7
(dp8
S'Active'
p9
F0.8
sS'Inactive'
p10
F0.2
ssS'forestAcc'
p11
S'0.1'
p12
sS'useBuiltInMissValHandling'
p13
I00
sS'maxDepth'
p14
S'20'
p15
sS'NumThreads'
p16
S'1'
p17
sS'minSample'
p18
S'5'
p19
sS'stratify'
p20
S'false'
p21
s.